target datalayout = "e-m:e-p270:32:32-p271:32:32-p272:64:64-i64:64-i128:128-f80:128-n8:16:32:64-S128"
target triple = "x86_64-pc-linux-gnu"

%struct.AVFilterContext = type { ptr, ptr, ptr, ptr, ptr, i32, ptr, ptr, i32, ptr, ptr, i32, i32, ptr, ptr, ptr, ptr, i32, ptr, i32, i32 }
%struct.W3FDIFContext = type { ptr, i32, i32, i32, i32, [4 x i32], [4 x i32], i32, i32, i32, ptr, ptr, ptr, ptr, i32, i32, %struct.W3FDIFDSPContext }
%struct.W3FDIFDSPContext = type { ptr, ptr, ptr, ptr, ptr }
%struct.AVFilterLink = type { ptr, ptr, ptr, ptr, i32, i32, i32, i32, %struct.AVRational, i32, i32, i32, %struct.AVChannelLayout, %struct.AVRational, ptr, i32, %struct.AVFilterFormatsConfig, %struct.AVFilterFormatsConfig }
%struct.AVChannelLayout = type { i32, i32, %union.anon.1, ptr }
%union.anon.1 = type { i64 }
%struct.AVRational = type { i32, i32 }
%struct.AVFilterFormatsConfig = type { ptr, ptr, ptr, ptr, ptr }
%struct.AVFrame = type { [8 x ptr], [8 x i32], ptr, i32, i32, i32, i32, i32, %struct.AVRational, i64, i64, %struct.AVRational, i32, ptr, i32, i32, [8 x ptr], ptr, i32, ptr, i32, i32, i32, i32, i32, i32, i32, i64, ptr, i32, ptr, ptr, i64, i64, i64, i64, ptr, %struct.AVChannelLayout, i64 }

; Function Attrs: nounwind uwtable
define internal i32 @filter_frame(ptr noundef %0, ptr noundef %1) #2 {
  %3 = alloca i32, align 4
  %4 = alloca ptr, align 8
  %5 = alloca ptr, align 8
  %6 = alloca ptr, align 8
  %7 = alloca ptr, align 8
  %8 = alloca i32, align 4
  %9 = alloca i32, align 4
  %10 = alloca ptr, align 8
  store ptr %0, ptr %4, align 8, !tbaa !33
  store ptr %1, ptr %5, align 8, !tbaa !35
  call void @llvm.lifetime.start.p0(i64 8, ptr %6) #10
  %11 = load ptr, ptr %4, align 8, !tbaa !33
  %12 = getelementptr inbounds nuw %struct.AVFilterLink, ptr %11, i32 0, i32 2
  %13 = load ptr, ptr %12, align 8, !tbaa !36
  store ptr %13, ptr %6, align 8, !tbaa !4
  call void @llvm.lifetime.start.p0(i64 8, ptr %7) #10
  %14 = load ptr, ptr %6, align 8, !tbaa !4
  %15 = getelementptr inbounds nuw %struct.AVFilterContext, ptr %14, i32 0, i32 9
  %16 = load ptr, ptr %15, align 8, !tbaa !9
  store ptr %16, ptr %7, align 8, !tbaa !22
  call void @llvm.lifetime.start.p0(i64 4, ptr %8) #10
  %17 = load ptr, ptr %7, align 8, !tbaa !22
  %18 = getelementptr inbounds nuw %struct.W3FDIFContext, ptr %17, i32 0, i32 10
  call void @av_frame_free(ptr noundef %18)
  %19 = load ptr, ptr %7, align 8, !tbaa !22
  %20 = getelementptr inbounds nuw %struct.W3FDIFContext, ptr %19, i32 0, i32 11
  %21 = load ptr, ptr %20, align 8, !tbaa !44
  %22 = load ptr, ptr %7, align 8, !tbaa !22
  %23 = getelementptr inbounds nuw %struct.W3FDIFContext, ptr %22, i32 0, i32 10
  store ptr %21, ptr %23, align 8, !tbaa !45
  %24 = load ptr, ptr %7, align 8, !tbaa !22
  %25 = getelementptr inbounds nuw %struct.W3FDIFContext, ptr %24, i32 0, i32 12
  %26 = load ptr, ptr %25, align 8, !tbaa !46
  %27 = load ptr, ptr %7, align 8, !tbaa !22
  %28 = getelementptr inbounds nuw %struct.W3FDIFContext, ptr %27, i32 0, i32 11
  store ptr %26, ptr %28, align 8, !tbaa !44
  %29 = load ptr, ptr %5, align 8, !tbaa !35
  %30 = load ptr, ptr %7, align 8, !tbaa !22
  %31 = getelementptr inbounds nuw %struct.W3FDIFContext, ptr %30, i32 0, i32 12
  store ptr %29, ptr %31, align 8, !tbaa !46
  %32 = load ptr, ptr %7, align 8, !tbaa !22
  %33 = getelementptr inbounds nuw %struct.W3FDIFContext, ptr %32, i32 0, i32 11
  %34 = load ptr, ptr %33, align 8, !tbaa !44
  %35 = icmp ne ptr %34, null
  br i1 %35, label %49, label %36

36:                                               ; preds = %2
  %37 = load ptr, ptr %7, align 8, !tbaa !22
  %38 = getelementptr inbounds nuw %struct.W3FDIFContext, ptr %37, i32 0, i32 12
  %39 = load ptr, ptr %38, align 8, !tbaa !46
  %40 = call ptr @av_frame_clone(ptr noundef %39)
  %41 = load ptr, ptr %7, align 8, !tbaa !22
  %42 = getelementptr inbounds nuw %struct.W3FDIFContext, ptr %41, i32 0, i32 11
  store ptr %40, ptr %42, align 8, !tbaa !44
  %43 = load ptr, ptr %7, align 8, !tbaa !22
  %44 = getelementptr inbounds nuw %struct.W3FDIFContext, ptr %43, i32 0, i32 11
  %45 = load ptr, ptr %44, align 8, !tbaa !44
  %46 = icmp ne ptr %45, null
  br i1 %46, label %48, label %47

47:                                               ; preds = %36
  store i32 -12, ptr %3, align 4
  store i32 1, ptr %9, align 4
  br label %117

48:                                               ; preds = %36
  br label %49

49:                                               ; preds = %48, %2
  %50 = load ptr, ptr %7, align 8, !tbaa !22
  %51 = getelementptr inbounds nuw %struct.W3FDIFContext, ptr %50, i32 0, i32 10
  %52 = load ptr, ptr %51, align 8, !tbaa !45
  %53 = icmp ne ptr %52, null
  br i1 %53, label %55, label %54

54:                                               ; preds = %49
  store i32 0, ptr %3, align 4
  store i32 1, ptr %9, align 4
  br label %117

55:                                               ; preds = %49
  %56 = load ptr, ptr %7, align 8, !tbaa !22
  %57 = getelementptr inbounds nuw %struct.W3FDIFContext, ptr %56, i32 0, i32 4
  %58 = load i32, ptr %57, align 4, !tbaa !47
  %59 = icmp ne i32 %58, 0
  br i1 %59, label %60, label %68

60:                                               ; preds = %55
  %61 = load ptr, ptr %7, align 8, !tbaa !22
  %62 = getelementptr inbounds nuw %struct.W3FDIFContext, ptr %61, i32 0, i32 11
  %63 = load ptr, ptr %62, align 8, !tbaa !44
  %64 = getelementptr inbounds nuw %struct.AVFrame, ptr %63, i32 0, i32 21
  %65 = load i32, ptr %64, align 4, !tbaa !48
  %66 = and i32 %65, 8
  %67 = icmp ne i32 %66, 0
  br i1 %67, label %68, label %73

68:                                               ; preds = %60, %55
  %69 = load ptr, ptr %6, align 8, !tbaa !4
  %70 = getelementptr inbounds nuw %struct.AVFilterContext, ptr %69, i32 0, i32 17
  %71 = load i32, ptr %70, align 8, !tbaa !54
  %72 = icmp ne i32 %71, 0
  br i1 %72, label %73, label %102

73:                                               ; preds = %68, %60
  call void @llvm.lifetime.start.p0(i64 8, ptr %10) #10
  %74 = load ptr, ptr %7, align 8, !tbaa !22
  %75 = getelementptr inbounds nuw %struct.W3FDIFContext, ptr %74, i32 0, i32 11
  %76 = load ptr, ptr %75, align 8, !tbaa !44
  %77 = call ptr @av_frame_clone(ptr noundef %76)
  store ptr %77, ptr %10, align 8, !tbaa !35
  %78 = load ptr, ptr %10, align 8, !tbaa !35
  %79 = icmp ne ptr %78, null
  br i1 %79, label %81, label %80

80:                                               ; preds = %73
  store i32 -12, ptr %3, align 4
  store i32 1, ptr %9, align 4
  br label %101

81:                                               ; preds = %73
  %82 = load ptr, ptr %7, align 8, !tbaa !22
  %83 = getelementptr inbounds nuw %struct.W3FDIFContext, ptr %82, i32 0, i32 10
  call void @av_frame_free(ptr noundef %83)
  %84 = load ptr, ptr %10, align 8, !tbaa !35
  %85 = getelementptr inbounds nuw %struct.AVFrame, ptr %84, i32 0, i32 9
  %86 = load i64, ptr %85, align 8, !tbaa !55
  %87 = icmp ne i64 %86, -9223372036854775808
  br i1 %87, label %88, label %93

88:                                               ; preds = %81
  %89 = load ptr, ptr %10, align 8, !tbaa !35
  %90 = getelementptr inbounds nuw %struct.AVFrame, ptr %89, i32 0, i32 9
  %91 = load i64, ptr %90, align 8, !tbaa !55
  %92 = mul nsw i64 %91, 2
  store i64 %92, ptr %90, align 8, !tbaa !55
  br label %93

93:                                               ; preds = %88, %81
  %94 = load ptr, ptr %6, align 8, !tbaa !4
  %95 = getelementptr inbounds nuw %struct.AVFilterContext, ptr %94, i32 0, i32 7
  %96 = load ptr, ptr %95, align 8, !tbaa !56
  %97 = getelementptr inbounds ptr, ptr %96, i64 0
  %98 = load ptr, ptr %97, align 8, !tbaa !33
  %99 = load ptr, ptr %10, align 8, !tbaa !35
  %100 = call i32 @ff_filter_frame(ptr noundef %98, ptr noundef %99)
  store i32 %100, ptr %3, align 4
  store i32 1, ptr %9, align 4
  br label %101

101:                                              ; preds = %93, %80
  call void @llvm.lifetime.end.p0(i64 8, ptr %10) #10
  br label %117

102:                                              ; preds = %68
  %103 = load ptr, ptr %6, align 8, !tbaa !4
  %104 = call i32 @filter(ptr noundef %103, i32 noundef 0)
  store i32 %104, ptr %8, align 4, !tbaa !24
  %105 = load i32, ptr %8, align 4, !tbaa !24
  %106 = icmp slt i32 %105, 0
  br i1 %106, label %112, label %107

107:                                              ; preds = %102
  %108 = load ptr, ptr %7, align 8, !tbaa !22
  %109 = getelementptr inbounds nuw %struct.W3FDIFContext, ptr %108, i32 0, i32 2
  %110 = load i32, ptr %109, align 4, !tbaa !57
  %111 = icmp eq i32 %110, 0
  br i1 %111, label %112, label %114

112:                                              ; preds = %107, %102
  %113 = load i32, ptr %8, align 4, !tbaa !24
  store i32 %113, ptr %3, align 4
  store i32 1, ptr %9, align 4
  br label %117

114:                                              ; preds = %107
  %115 = load ptr, ptr %6, align 8, !tbaa !4
  %116 = call i32 @filter(ptr noundef %115, i32 noundef 1)
  store i32 %116, ptr %3, align 4
  store i32 1, ptr %9, align 4
  br label %117

117:                                              ; preds = %114, %112, %101, %54, %47
  call void @llvm.lifetime.end.p0(i64 4, ptr %8) #10
  call void @llvm.lifetime.end.p0(i64 8, ptr %7) #10
  call void @llvm.lifetime.end.p0(i64 8, ptr %6) #10
  %118 = load i32, ptr %3, align 4
  ret i32 %118
}