; Function Attrs: nounwind uwtable
define internal i32 @filter_frame(ptr noundef readonly captures(none) %0, ptr noundef %1) #2 {
  %3 = getelementptr inbounds nuw i8, ptr %0, i64 16
  %4 = load ptr, ptr %3, align 8, !tbaa !28
  %5 = getelementptr inbounds nuw i8, ptr %4, i64 72
  %6 = load ptr, ptr %5, align 8, !tbaa !4
  %7 = getelementptr inbounds nuw i8, ptr %6, i64 72
  tail call void @av_frame_free(ptr noundef nonnull %7) #11
  %8 = getelementptr inbounds nuw i8, ptr %6, i64 80
  %9 = load ptr, ptr %8, align 8, !tbaa !37
  store ptr %9, ptr %7, align 8, !tbaa !38
  %10 = getelementptr inbounds nuw i8, ptr %6, i64 88
  %11 = load ptr, ptr %10, align 8, !tbaa !39
  store ptr %11, ptr %8, align 8, !tbaa !37
  store ptr %1, ptr %10, align 8, !tbaa !39
  %.not = icmp eq ptr %11, null
  br i1 %.not, label %12, label %14

12:                                               ; preds = %2
  %13 = tail call ptr @av_frame_clone(ptr noundef %1) #11
  store ptr %13, ptr %8, align 8, !tbaa !37
  %.not31 = icmp eq ptr %13, null
  br i1 %.not31, label %48, label %._crit_edge

._crit_edge:                                      ; preds = %12
  %.pre = load ptr, ptr %7, align 8, !tbaa !38
  br label %14

14:                                               ; preds = %._crit_edge, %2
  %15 = phi ptr [ %13, %._crit_edge ], [ %11, %2 ]
  %16 = phi ptr [ %.pre, %._crit_edge ], [ %9, %2 ]
  %.not32 = icmp eq ptr %16, null
  br i1 %.not32, label %48, label %17

17:                                               ; preds = %14
  %18 = getelementptr inbounds nuw i8, ptr %6, i64 20
  %19 = load i32, ptr %18, align 4, !tbaa !40
  %.not33 = icmp eq i32 %19, 0
  br i1 %.not33, label %24, label %20

20:                                               ; preds = %17
  %21 = getelementptr inbounds nuw i8, ptr %15, i64 276
  %22 = load i32, ptr %21, align 4, !tbaa !41
  %23 = and i32 %22, 8
  %.not34 = icmp eq i32 %23, 0
  br i1 %.not34, label %27, label %24

24:                                               ; preds = %20, %17
  %25 = getelementptr inbounds nuw i8, ptr %4, i64 128
  %26 = load i32, ptr %25, align 8, !tbaa !47
  %.not35 = icmp eq i32 %26, 0
  br i1 %.not35, label %39, label %27

27:                                               ; preds = %24, %20
  %28 = tail call ptr @av_frame_clone(ptr noundef nonnull %15) #11
  %.not36 = icmp eq ptr %28, null
  br i1 %.not36, label %48, label %29

29:                                               ; preds = %27
  tail call void @av_frame_free(ptr noundef nonnull %7) #11
  %30 = getelementptr inbounds nuw i8, ptr %28, i64 136
  %31 = load i64, ptr %30, align 8, !tbaa !48
  %.not37 = icmp eq i64 %31, -9223372036854775808
  br i1 %.not37, label %34, label %32

32:                                               ; preds = %29
  %33 = shl nsw i64 %31, 1
  store i64 %33, ptr %30, align 8, !tbaa !48
  br label %34

34:                                               ; preds = %32, %29
  %35 = getelementptr inbounds nuw i8, ptr %4, i64 56
  %36 = load ptr, ptr %35, align 8, !tbaa !49
  %37 = load ptr, ptr %36, align 8, !tbaa !50
  %38 = tail call i32 @ff_filter_frame(ptr noundef %37, ptr noundef nonnull %28) #11
  br label %48

39:                                               ; preds = %24
  %40 = tail call fastcc i32 @filter(ptr noundef nonnull %4, i32 noundef 0)
  %41 = icmp slt i32 %40, 0
  br i1 %41, label %48, label %42

42:                                               ; preds = %39
  %43 = getelementptr inbounds nuw i8, ptr %6, i64 12
  %44 = load i32, ptr %43, align 4, !tbaa !52
  %45 = icmp eq i32 %44, 0
  br i1 %45, label %48, label %46

46:                                               ; preds = %42
  %47 = tail call fastcc i32 @filter(ptr noundef nonnull %4, i32 noundef 1)
  br label %48

48:                                               ; preds = %39, %42, %34, %27, %14, %12, %46
  %.0 = phi i32 [ %47, %46 ], [ -12, %12 ], [ 0, %14 ], [ %38, %34 ], [ -12, %27 ], [ %40, %42 ], [ %40, %39 ]
  ret i32 %.0
}